target datalayout = "e-m:e-p270:32:32-p271:32:32-p272:64:64-i64:64-i128:128-f80:128-n8:16:32:64-S128"
target triple = "x86_64-pc-linux-gnu"

@.str.21 = private unnamed_addr constant [37 x i8] c"traverse_unlink: Invalid arguments!\0A\00", align 1
@.str.22 = private unnamed_addr constant [71 x i8] c"traverse_unlink: Failed to open file descriptor for target directory!\0A\00", align 1
@.str.23 = private unnamed_addr constant [71 x i8] c"traverse_unlink: Failed to get basename of target path: %s\0A\09Error: %d\0A\00", align 1
@.str.24 = private unnamed_addr constant [48 x i8] c"traverse_unlink: Failed to unlink: %s\0AError:%s\0A\00", align 1

; Function Attrs: nounwind uwtable
define internal i32 @traverse_unlink(ptr noundef %0) #0 {
  %2 = alloca ptr, align 8
  %3 = alloca i32, align 4
  %4 = alloca i32, align 4
  %5 = alloca i32, align 4
  %6 = alloca ptr, align 8
  store ptr %0, ptr %2, align 8
  store i32 -1, ptr %3, align 4
  store i32 -1, ptr %5, align 4
  store ptr null, ptr %6, align 8
  %7 = load ptr, ptr %2, align 8
  %8 = icmp eq ptr null, %7
  br i1 %8, label %9, label %11

9:                                                ; preds = %1
  %10 = call i32 (i32, ptr, ...) @logg(i32 noundef 0, ptr noundef @.str.21)
  br label %40

11:                                               ; preds = %1
  %12 = load ptr, ptr %2, align 8
  %13 = call i32 @traverse_to(ptr noundef %12, i1 noundef zeroext true, ptr noundef %5)
  %14 = icmp ne i32 0, %13
  br i1 %14, label %15, label %17

15:                                               ; preds = %11
  %16 = call i32 (i32, ptr, ...) @logg(i32 noundef 0, ptr noundef @.str.22)
  br label %40

17:                                               ; preds = %11
  %18 = load ptr, ptr %2, align 8
  %19 = load ptr, ptr %2, align 8
  %20 = call i64 @strlen(ptr noundef %19) #6
  %21 = call i32 @cli_basename(ptr noundef %18, i64 noundef %20, ptr noundef %6)
  store i32 %21, ptr %4, align 4
  %22 = load i32, ptr %4, align 4
  %23 = icmp ne i32 0, %22
  br i1 %23, label %24, label %28

24:                                               ; preds = %17
  %25 = load ptr, ptr %2, align 8
  %26 = load i32, ptr %4, align 4
  %27 = call i32 (i32, ptr, ...) @logg(i32 noundef 0, ptr noundef @.str.23, ptr noundef %25, i32 noundef %26)
  br label %40

28:                                               ; preds = %17
  %29 = load i32, ptr %5, align 4
  %30 = load ptr, ptr %6, align 8
  %31 = call i32 @unlinkat(i32 noundef %29, ptr noundef %30, i32 noundef 0) #7
  %32 = icmp ne i32 0, %31
  br i1 %32, label %33, label %39

33:                                               ; preds = %28
  %34 = load ptr, ptr %2, align 8
  %35 = call ptr @__errno_location() #8
  %36 = load i32, ptr %35, align 4
  %37 = call ptr @strerror(i32 noundef %36) #7
  %38 = call i32 (i32, ptr, ...) @logg(i32 noundef 0, ptr noundef @.str.24, ptr noundef %34, ptr noundef %37)
  br label %40

39:                                               ; preds = %28
  store i32 0, ptr %3, align 4
  br label %40

40:                                               ; preds = %39, %33, %24, %15, %9
  %41 = load ptr, ptr %6, align 8
  %42 = icmp ne ptr null, %41
  br i1 %42, label %43, label %45

43:                                               ; preds = %40
  %44 = load ptr, ptr %6, align 8
  call void @free(ptr noundef %44) #7
  br label %45

45:                                               ; preds = %43, %40
  %46 = load i32, ptr %5, align 4
  %47 = icmp ne i32 -1, %46
  br i1 %47, label %48, label %51

48:                                               ; preds = %45
  %49 = load i32, ptr %5, align 4
  %50 = call i32 @close(i32 noundef %49)
  br label %51

51:                                               ; preds = %48, %45
  %52 = load i32, ptr %3, align 4
  ret i32 %52
}