; Function Attrs: nounwind uwtable
define internal fastcc noundef i32 @traverse_unlink(ptr noundef %0) unnamed_addr #0 {
  %2 = alloca i32, align 4
  %3 = alloca ptr, align 8
  store i32 -1, ptr %2, align 4
  store ptr null, ptr %3, align 8
  %4 = call fastcc i32 @traverse_to(ptr noundef %0, ptr noundef nonnull %2)
  %.not = icmp eq i32 %4, 0
  br i1 %.not, label %7, label %5

5:                                                ; preds = %1
  %6 = call i32 (i32, ptr, ...) @logg(i32 noundef 0, ptr noundef nonnull @.str.22) #11
  br label %21

7:                                                ; preds = %1
  %8 = call i64 @strlen(ptr noundef nonnull dereferenceable(1) %0) #12
  %9 = call i32 @cli_basename(ptr noundef %0, i64 noundef %8, ptr noundef nonnull %3) #11
  %.not12 = icmp eq i32 %9, 0
  br i1 %.not12, label %12, label %10

10:                                               ; preds = %7
  %11 = call i32 (i32, ptr, ...) @logg(i32 noundef 0, ptr noundef nonnull @.str.23, ptr noundef %0, i32 noundef %9) #11
  br label %21

12:                                               ; preds = %7
  %13 = load i32, ptr %2, align 4
  %14 = load ptr, ptr %3, align 8
  %15 = call i32 @unlinkat(i32 noundef %13, ptr noundef %14, i32 noundef 0) #11
  %.not13 = icmp eq i32 %15, 0
  br i1 %.not13, label %21, label %16

16:                                               ; preds = %12
  %17 = tail call ptr @__errno_location() #13
  %18 = load i32, ptr %17, align 4
  %19 = call ptr @strerror(i32 noundef %18) #11
  %20 = call i32 (i32, ptr, ...) @logg(i32 noundef 0, ptr noundef nonnull @.str.24, ptr noundef %0, ptr noundef %19) #11
  br label %21

21:                                               ; preds = %12, %16, %10, %5
  %.0 = phi i32 [ -1, %5 ], [ -1, %10 ], [ -1, %16 ], [ 0, %12 ]
  %22 = load ptr, ptr %3, align 8
  %.not14 = icmp eq ptr %22, null
  br i1 %.not14, label %24, label %23

23:                                               ; preds = %21
  call void @free(ptr noundef nonnull %22) #11
  br label %24

24:                                               ; preds = %23, %21
  %25 = load i32, ptr %2, align 4
  %.not15 = icmp eq i32 %25, -1
  br i1 %.not15, label %28, label %26

26:                                               ; preds = %24
  %27 = call i32 @close(i32 noundef %25) #11
  br label %28

28:                                               ; preds = %26, %24
  ret i32 %.0
}